target datalayout = "e-m:e-p270:32:32-p271:32:32-p272:64:64-i64:64-i128:128-f80:128-n8:16:32:64-S128"
target triple = "x86_64-pc-linux-gnu"

@hf_ex_avaya2_tlv_subtype = internal global i32 0, align 4
@hf_ex_avaya2_fabric_connect = internal global i32 0, align 4
@hf_ex_avaya2_fabric_numbvlans = internal global i32 0, align 4
@hf_ex_avaya2_fabric_bvlanid = internal global i32 0, align 4
@hf_ex_avaya2_fabric_sysidlength = internal global i32 0, align 4
@hf_ex_avaya2_fabric_sysid = internal global i32 0, align 4

; Function Attrs: null_pointer_is_valid sspstrong uwtable
define internal i32 @dissect_extreme_avaya2_tlv(ptr noundef %0, ptr noundef %1, ptr noundef %2) #0 {
  %4 = alloca ptr, align 8
  %5 = alloca ptr, align 8
  %6 = alloca ptr, align 8
  %7 = alloca i8, align 1
  %8 = alloca i32, align 4
  %9 = alloca i32, align 4
  %10 = alloca i32, align 4
  store ptr %0, ptr %4, align 8
  store ptr %1, ptr %5, align 8
  store ptr %2, ptr %6, align 8
  call void @llvm.lifetime.start.p0(i64 1, ptr %7) #9
  call void @llvm.lifetime.start.p0(i64 4, ptr %8) #9
  call void @llvm.lifetime.start.p0(i64 4, ptr %9) #9
  call void @llvm.lifetime.start.p0(i64 4, ptr %10) #9
  store i32 0, ptr %10, align 4
  %11 = load ptr, ptr %4, align 8
  %12 = load i32, ptr %10, align 4
  %13 = call zeroext i8 @tvb_get_uint8(ptr noundef %11, i32 noundef %12)
  store i8 %13, ptr %7, align 1
  %14 = load ptr, ptr %6, align 8
  %15 = load i32, ptr @hf_ex_avaya2_tlv_subtype, align 4
  %16 = load ptr, ptr %4, align 8
  %17 = load i32, ptr %10, align 4
  %18 = call ptr @proto_tree_add_item(ptr noundef %14, i32 noundef %15, ptr noundef %16, i32 noundef %17, i32 noundef 1, i32 noundef 0)
  %19 = load i32, ptr %10, align 4
  %20 = add i32 %19, 1
  store i32 %20, ptr %10, align 4
  %21 = load i8, ptr %7, align 1
  %22 = zext i8 %21 to i32
  switch i32 %22, label %67 [
    i32 4, label %23
  ]

23:                                               ; preds = %3
  %24 = load ptr, ptr %6, align 8
  %25 = load i32, ptr @hf_ex_avaya2_fabric_connect, align 4
  %26 = load ptr, ptr %4, align 8
  %27 = load i32, ptr %10, align 4
  %28 = call ptr @proto_tree_add_item(ptr noundef %24, i32 noundef %25, ptr noundef %26, i32 noundef %27, i32 noundef 1, i32 noundef 0)
  %29 = load i32, ptr %10, align 4
  %30 = add i32 %29, 1
  store i32 %30, ptr %10, align 4
  %31 = load ptr, ptr %6, align 8
  %32 = load i32, ptr @hf_ex_avaya2_fabric_numbvlans, align 4
  %33 = load ptr, ptr %4, align 8
  %34 = load i32, ptr %10, align 4
  %35 = call ptr @proto_tree_add_item_ret_uint(ptr noundef %31, i32 noundef %32, ptr noundef %33, i32 noundef %34, i32 noundef 1, i32 noundef 0, ptr noundef %8)
  %36 = load i32, ptr %10, align 4
  %37 = add i32 %36, 1
  store i32 %37, ptr %10, align 4
  br label %38

38:                                               ; preds = %42, %23
  %39 = load i32, ptr %8, align 4
  %40 = add i32 %39, -1
  store i32 %40, ptr %8, align 4
  %41 = icmp ne i32 %39, 0
  br i1 %41, label %42, label %50

42:                                               ; preds = %38
  %43 = load ptr, ptr %6, align 8
  %44 = load i32, ptr @hf_ex_avaya2_fabric_bvlanid, align 4
  %45 = load ptr, ptr %4, align 8
  %46 = load i32, ptr %10, align 4
  %47 = call ptr @proto_tree_add_item(ptr noundef %43, i32 noundef %44, ptr noundef %45, i32 noundef %46, i32 noundef 2, i32 noundef 0)
  %48 = load i32, ptr %10, align 4
  %49 = add i32 %48, 2
  store i32 %49, ptr %10, align 4
  br label %38, !llvm.loop !23

50:                                               ; preds = %38
  %51 = load ptr, ptr %6, align 8
  %52 = load i32, ptr @hf_ex_avaya2_fabric_sysidlength, align 4
  %53 = load ptr, ptr %4, align 8
  %54 = load i32, ptr %10, align 4
  %55 = call ptr @proto_tree_add_item_ret_uint(ptr noundef %51, i32 noundef %52, ptr noundef %53, i32 noundef %54, i32 noundef 1, i32 noundef 0, ptr noundef %9)
  %56 = load i32, ptr %10, align 4
  %57 = add i32 %56, 1
  store i32 %57, ptr %10, align 4
  %58 = load ptr, ptr %6, align 8
  %59 = load i32, ptr @hf_ex_avaya2_fabric_sysid, align 4
  %60 = load ptr, ptr %4, align 8
  %61 = load i32, ptr %10, align 4
  %62 = load i32, ptr %9, align 4
  %63 = call ptr @proto_tree_add_item(ptr noundef %58, i32 noundef %59, ptr noundef %60, i32 noundef %61, i32 noundef %62, i32 noundef 0)
  %64 = load i32, ptr %9, align 4
  %65 = load i32, ptr %10, align 4
  %66 = add i32 %65, %64
  store i32 %66, ptr %10, align 4
  br label %67

67:                                               ; preds = %3, %50
  %68 = load i32, ptr %10, align 4
  call void @llvm.lifetime.end.p0(i64 4, ptr %10) #9
  call void @llvm.lifetime.end.p0(i64 4, ptr %9) #9
  call void @llvm.lifetime.end.p0(i64 4, ptr %8) #9
  call void @llvm.lifetime.end.p0(i64 1, ptr %7) #9
  ret i32 %68
}