; Function Attrs: null_pointer_is_valid sspstrong uwtable
define internal fastcc void @dissect_extreme_avaya2_tlv(ptr noundef %0, ptr noundef %1) unnamed_addr #0 {
  %3 = alloca i32, align 4
  %4 = alloca i32, align 4
  call void @llvm.lifetime.start.p0(i64 4, ptr nonnull %3) #10
  call void @llvm.lifetime.start.p0(i64 4, ptr nonnull %4) #10
  %5 = tail call zeroext i8 @tvb_get_uint8(ptr noundef %0, i32 noundef 0)
  %6 = load i32, ptr @hf_ex_avaya2_tlv_subtype, align 4
  %7 = tail call ptr @proto_tree_add_item(ptr noundef %1, i32 noundef %6, ptr noundef %0, i32 noundef 0, i32 noundef 1, i32 noundef 0)
  %cond = icmp eq i8 %5, 4
  br i1 %cond, label %8, label %26

8:                                                ; preds = %2
  %9 = load i32, ptr @hf_ex_avaya2_fabric_connect, align 4
  %10 = tail call ptr @proto_tree_add_item(ptr noundef %1, i32 noundef %9, ptr noundef %0, i32 noundef 1, i32 noundef 1, i32 noundef 0)
  %11 = load i32, ptr @hf_ex_avaya2_fabric_numbvlans, align 4
  %12 = call ptr @proto_tree_add_item_ret_uint(ptr noundef %1, i32 noundef %11, ptr noundef %0, i32 noundef 2, i32 noundef 1, i32 noundef 0, ptr noundef nonnull %3)
  %13 = load i32, ptr %3, align 4
  %14 = add i32 %13, -1
  store i32 %14, ptr %3, align 4
  %.not1 = icmp eq i32 %13, 0
  br i1 %.not1, label %._crit_edge, label %.lr.ph

.lr.ph:                                           ; preds = %8, %.lr.ph
  %.12 = phi i32 [ %17, %.lr.ph ], [ 3, %8 ]
  %15 = load i32, ptr @hf_ex_avaya2_fabric_bvlanid, align 4
  %16 = call ptr @proto_tree_add_item(ptr noundef %1, i32 noundef %15, ptr noundef %0, i32 noundef %.12, i32 noundef 2, i32 noundef 0)
  %17 = add i32 %.12, 2
  %18 = load i32, ptr %3, align 4
  %19 = add i32 %18, -1
  store i32 %19, ptr %3, align 4
  %.not = icmp eq i32 %18, 0
  br i1 %.not, label %._crit_edge, label %.lr.ph, !llvm.loop !21

._crit_edge:                                      ; preds = %.lr.ph, %8
  %.1.lcssa = phi i32 [ 3, %8 ], [ %17, %.lr.ph ]
  %20 = load i32, ptr @hf_ex_avaya2_fabric_sysidlength, align 4
  %21 = call ptr @proto_tree_add_item_ret_uint(ptr noundef %1, i32 noundef %20, ptr noundef %0, i32 noundef %.1.lcssa, i32 noundef 1, i32 noundef 0, ptr noundef nonnull %4)
  %22 = add i32 %.1.lcssa, 1
  %23 = load i32, ptr @hf_ex_avaya2_fabric_sysid, align 4
  %24 = load i32, ptr %4, align 4
  %25 = call ptr @proto_tree_add_item(ptr noundef %1, i32 noundef %23, ptr noundef %0, i32 noundef %22, i32 noundef %24, i32 noundef 0)
  br label %26

26:                                               ; preds = %2, %._crit_edge
  call void @llvm.lifetime.end.p0(i64 4, ptr nonnull %4) #10
  call void @llvm.lifetime.end.p0(i64 4, ptr nonnull %3) #10
  ret void
}